Certificate:
    Data:
        Version: 1 (0x0)
        Serial Number: 2 (0x2)
    Signature Algorithm: sha1WithRSAEncryption
        Issuer: C=DE, ST=Bavaria, L=Nuremberg, O=NETWAYS GmbH, OU=Monitoring, CN=Icinga CA
        Validity
            Not Before: Jan  7 13:17:38 2014 GMT
            Not After : Jan  5 13:17:38 2024 GMT
        Subject: C=DE, ST=Bavaria, L=Nuremberg, O=NETWAYS GmbH, OU=Monitoring, CN=icinga2a
        Subject Public Key Info:
            Public Key Algorithm: rsaEncryption
                Public-Key: (4096 bit)
                Modulus:
                    00:d0:1a:28:ed:f0:c2:7d:98:a7:4d:af:45:fc:1d:
                    c4:7b:59:85:1d:d4:c3:c1:df:9f:c6:38:64:74:c1:
                    b0:16:1f:40:2a:1c:fd:86:64:a4:d2:6b:f0:f0:85:
                    22:ba:35:70:d5:0d:a5:3a:26:28:3e:03:a3:76:7b:
                    70:f5:db:95:8d:65:47:2d:d1:b6:7a:08:ee:bf:f3:
                    ba:a8:9f:43:1b:cd:f6:66:50:3c:77:d8:24:a6:88:
                    71:74:94:09:37:8a:73:2c:31:0e:66:6f:e4:e6:9d:
                    56:cd:8d:f0:e6:65:15:7c:c2:2d:b9:9c:5b:75:3a:
                    b1:fb:a8:05:1b:b3:7f:26:f6:c8:88:91:f5:79:42:
                    05:2a:f2:59:14:44:f8:fd:49:1d:a9:ce:4a:94:9d:
                    c0:69:0e:d4:ae:11:9f:df:c1:6d:12:4b:21:88:ef:
                    7c:f3:67:2a:bc:98:13:c4:f7:ba:75:fe:b4:5d:cd:
                    35:3a:47:69:f5:df:14:f7:c2:53:b2:74:34:cb:e1:
                    65:23:79:9a:a7:85:1a:10:79:5d:b3:fc:cf:83:c2:
                    16:0d:1d:30:a4:66:b6:e6:30:ae:4d:17:43:68:36:
                    6e:d9:fb:5e:99:33:e8:4d:85:24:d3:71:52:b1:e8:
                    e8:4e:6a:a8:7a:31:66:f4:a5:91:29:97:b9:b5:18:
                    0f:46:34:7e:f4:a6:89:53:b8:c8:d3:89:46:7f:56:
                    b3:35:ac:4b:d3:88:86:52:00:07:ca:49:48:1c:95:
                    27:23:0a:50:c6:71:e8:15:54:d2:5f:02:6c:5a:91:
                    4d:67:eb:8c:bc:dc:9a:79:dc:af:1d:a9:7e:50:14:
                    1d:13:0f:08:53:c8:36:a6:e8:22:fb:6d:c1:c4:a8:
                    22:11:18:97:3e:a1:04:18:eb:0c:9e:1d:90:cd:6b:
                    26:a0:49:73:cd:d2:26:97:f9:54:a3:80:c7:e3:76:
                    c8:10:be:c4:4e:b2:db:79:ea:eb:ce:eb:6b:35:cc:
                    a7:5f:a4:93:ba:e1:86:fd:fe:3e:93:7c:49:9a:09:
                    aa:d0:74:04:e8:6e:03:1e:90:8f:18:c5:b8:19:be:
                    f0:98:ce:bc:2f:85:20:2d:ee:61:f4:3b:45:ec:74:
                    2f:e6:76:56:ab:3f:8c:87:4c:d4:73:cb:ae:5e:78:
                    31:ad:aa:95:1b:46:51:2a:26:ba:b9:ab:6c:44:2e:
                    01:9a:91:2d:8d:7a:7d:20:62:9d:72:b7:10:33:fb:
                    0d:b8:d5:0b:db:f5:11:65:45:43:e0:9e:65:ef:50:
                    6e:2e:c2:a6:65:70:e4:99:fd:ad:5c:97:2b:20:28:
                    75:15:c0:54:cf:36:e2:ca:02:c6:1d:f2:a3:1e:e3:
                    1d:5b:03
                Exponent: 65537 (0x10001)
    Signature Algorithm: sha1WithRSAEncryption
         36:81:e2:40:77:da:b6:b0:72:ed:d3:70:4b:c9:6f:cc:ba:1e:
         23:70:12:17:a7:1d:63:39:c0:50:01:5f:f9:7d:6b:17:31:65:
         83:de:78:ef:e5:18:c3:7d:21:0b:b7:38:52:18:30:bc:ae:68:
         27:b6:99:b4:a6:45:9c:c1:65:2c:f3:28:80:f5:6c:73:e6:79:
         e1:b4:13:82:31:7b:40:93:4c:92:69:97:28:00:b3:45:83:12:
         6a:da:30:dd:91:40:55:d7:21:4d:68:09:28:cc:ac:96:a8:db:
         15:a1:a3:f7:27:60:41:6e:e4:e7:ec:f0:cf:a0:c8:46:75:09:
         4c:07:de:d8:a9:e6:15:86:40:47:dd:fd:28:ad:ac:4d:12:b9:
         7e:9d:5c:80:32:ec:ad:63:ad:bf:2a:39:4c:6d:b7:18:f7:0e:
         a6:17:71:b8:c6:99:b9:f0:12:4c:5b:5c:84:11:e9:00:65:8c:
         08:4b:e5:02:9b:ba:20:fb:4c:c7:59:20:ee:b6:fd:e5:c8:a2:
         26:7d:bf:5b:fa:58:d0:50:c2:35:44:07:39:d7:34:d2:e8:3f:
         30:8e:ad:cd:53:5c:49:9c:ba:78:f3:26:20:b5:bd:2b:ae:31:
         51:5c:d8:be:64:6e:0d:cc:08:de:e2:7c:77:61:29:de:ef:31:
         6c:49:7e:f1:68:49:38:73:9c:8c:ab:54:58:cd:b9:fc:7b:c6:
         64:3d:3a:10:ac:06:34:ce:94:53:5f:78:fe:49:94:4a:73:35:
         22:1c:cc:7d:b2:ee:14:e2:3d:80:e7:f8:9d:1d:d0:b6:7f:a8:
         30:29:31:88:dd:cb:17:f9:94:74:38:bb:44:cf:f0:2d:e1:93:
         4a:c1:49:ef:8b:4b:5d:0b:93:b6:00:c8:b0:7b:4f:f5:ef:ff:
         e7:2a:5c:07:a8:95:d6:4f:8d:a7:ec:ff:88:de:1c:e5:52:55:
         d9:e4:7a:10:63:59:4d:67:08:29:4c:29:34:a3:a0:99:60:d7:
         b3:a9:d9:cf:db:58:a3:0f:4c:fc:d1:57:64:4c:cc:86:71:7e:
         37:2b:0f:13:02:73:11:0c:e5:4e:13:93:11:cc:8a:7d:e6:22:
         22:8e:19:ae:4f:db:f1:17:da:76:20:36:e1:5b:8d:9a:f0:d0:
         6d:24:c8:cc:2c:de:a0:08:bd:9b:ba:6b:3e:f9:be:72:48:4c:
         c4:7f:70:92:2e:e4:13:06:11:e8:83:89:56:c9:45:a6:aa:68:
         08:57:da:80:68:59:e9:51:46:a1:3c:d8:f2:36:18:fd:fb:f5:
         73:9f:2c:8e:dd:96:8e:20:28:09:e5:81:5a:d9:f9:74:ba:8f:
         ad:3f:6a:f2:96:44:d8:f4
-----BEGIN CERTIFICATE-----
MIIFWTCCA0ECAQIwDQYJKoZIhvcNAQEFBQAwczELMAkGA1UEBhMCREUxEDAOBgNV
BAgMB0JhdmFyaWExEjAQBgNVBAcMCU51cmVtYmVyZzEVMBMGA1UECgwMTkVUV0FZ
UyBHbWJIMRMwEQYDVQQLDApNb25pdG9yaW5nMRIwEAYDVQQDDAlJY2luZ2EgQ0Ew
HhcNMTQwMTA3MTMxNzM4WhcNMjQwMTA1MTMxNzM4WjByMQswCQYDVQQGEwJERTEQ
MA4GA1UECAwHQmF2YXJpYTESMBAGA1UEBwwJTnVyZW1iZXJnMRUwEwYDVQQKDAxO
RVRXQVlTIEdtYkgxEzARBgNVBAsMCk1vbml0b3JpbmcxETAPBgNVBAMMCGljaW5n
YTJhMIICIjANBgkqhkiG9w0BAQEFAAOCAg8AMIICCgKCAgEA0Boo7fDCfZinTa9F
/B3Ee1mFHdTDwd+fxjhkdMGwFh9AKhz9hmSk0mvw8IUiujVw1Q2lOiYoPgOjdntw
9duVjWVHLdG2egjuv/O6qJ9DG832ZlA8d9gkpohxdJQJN4pzLDEOZm/k5p1WzY3w
5mUVfMItuZxbdTqx+6gFG7N/JvbIiJH1eUIFKvJZFET4/Ukdqc5KlJ3AaQ7UrhGf
38FtEkshiO9882cqvJgTxPe6df60Xc01Okdp9d8U98JTsnQ0y+FlI3map4UaEHld
s/zPg8IWDR0wpGa25jCuTRdDaDZu2ftemTPoTYUk03FSsejoTmqoejFm9KWRKZe5
tRgPRjR+9KaJU7jI04lGf1azNaxL04iGUgAHyklIHJUnIwpQxnHoFVTSXwJsWpFN
Z+uMvNyaedyvHal+UBQdEw8IU8g2pugi+23BxKgiERiXPqEEGOsMnh2QzWsmoElz
zdIml/lUo4DH43bIEL7ETrLbeerrzutrNcynX6STuuGG/f4+k3xJmgmq0HQE6G4D
HpCPGMW4Gb7wmM68L4UgLe5h9DtF7HQv5nZWqz+Mh0zUc8uuXngxraqVG0ZRKia6
uatsRC4BmpEtjXp9IGKdcrcQM/sNuNUL2/URZUVD4J5l71BuLsKmZXDkmf2tXJcr
ICh1FcBUzzbiygLGHfKjHuMdWwMCAwEAATANBgkqhkiG9w0BAQUFAAOCAgEANoHi
QHfatrBy7dNwS8lvzLoeI3ASF6cdYznAUAFf+X1rFzFlg9547+UYw30hC7c4Uhgw
vK5oJ7aZtKZFnMFlLPMogPVsc+Z54bQTgjF7QJNMkmmXKACzRYMSatow3ZFAVdch
TWgJKMyslqjbFaGj9ydgQW7k5+zwz6DIRnUJTAfe2KnmFYZAR939KK2sTRK5fp1c
gDLsrWOtvyo5TG23GPcOphdxuMaZufASTFtchBHpAGWMCEvlApu6IPtMx1kg7rb9
5ciiJn2/W/pY0FDCNUQHOdc00ug/MI6tzVNcSZy6ePMmILW9K64xUVzYvmRuDcwI
3uJ8d2Ep3u8xbEl+8WhJOHOcjKtUWM25/HvGZD06EKwGNM6UU194/kmUSnM1IhzM
fbLuFOI9gOf4nR3Qtn+oMCkxiN3LF/mUdDi7RM/wLeGTSsFJ74tLXQuTtgDIsHtP
9e//5ypcB6iV1k+Np+z/iN4c5VJV2eR6EGNZTWcIKUwpNKOgmWDXs6nZz9tYow9M
/NFXZEzMhnF+NysPEwJzEQzlThOTEcyKfeYiIo4Zrk/b8RfadiA24VuNmvDQbSTI
zCzeoAi9m7prPvm+ckhMxH9wki7kEwYR6IOJVslFpqpoCFfagGhZ6VFGoTzY8jYY
/fv1c58sjt2WjiAoCeWBWtn5dLqPrT9q8pZE2PQ=
-----END CERTIFICATE-----
